; Function Attrs: nounwind uwtable
define void @Wln_NtkStartFaninMap(ptr noundef readonly captures(none) %0, ptr noundef captures(none) %1, i32 noundef %2) local_unnamed_addr #0 {
  %4 = getelementptr i8, ptr %0, i64 76
  %.val15 = load i32, ptr %4, align 4, !tbaa !21
  %5 = icmp sgt i32 %.val15, 1
  br i1 %5, label %.lr.ph.i, label %Wln_NtkFaninNum.exit

.lr.ph.i:                                         ; preds = %3
  %6 = getelementptr i8, ptr %0, i64 88
  %.val7.i = load ptr, ptr %6, align 8, !tbaa !25
  %wide.trip.count.i = zext nneg i32 %.val15 to i64
  br label %7

7:                                                ; preds = %7, %.lr.ph.i
  %indvars.iv.i = phi i64 [ 1, %.lr.ph.i ], [ %indvars.iv.next.i, %7 ]
  %.09.i = phi i32 [ 0, %.lr.ph.i ], [ %10, %7 ]
  %8 = getelementptr inbounds nuw %struct.Wln_Vec_t_, ptr %.val7.i, i64 %indvars.iv.i, i32 1
  %9 = load i32, ptr %8, align 4, !tbaa !43
  %10 = add nsw i32 %9, %.09.i
  %indvars.iv.next.i = add nuw nsw i64 %indvars.iv.i, 1
  %exitcond.not.i = icmp eq i64 %indvars.iv.next.i, %wide.trip.count.i
  br i1 %exitcond.not.i, label %Wln_NtkFaninNum.exit, label %7, !llvm.loop !102

Wln_NtkFaninNum.exit:                             ; preds = %7, %3
  %.0.lcssa.i = phi i32 [ 0, %3 ], [ %10, %7 ]
  %11 = mul nsw i32 %.0.lcssa.i, %2
  %12 = add nsw i32 %11, %.val15
  %13 = load i32, ptr %1, align 8, !tbaa !18
  %.not.i.i = icmp slt i32 %13, %12
  br i1 %.not.i.i, label %14, label %Vec_IntGrow.exit.i

14:                                               ; preds = %Wln_NtkFaninNum.exit
  %15 = getelementptr inbounds nuw i8, ptr %1, i64 8
  %16 = load ptr, ptr %15, align 8, !tbaa !17
  %.not9.i.i = icmp eq ptr %16, null
  %17 = sext i32 %12 to i64
  %18 = shl nsw i64 %17, 2
  br i1 %.not9.i.i, label %21, label %19

19:                                               ; preds = %14
  %20 = tail call ptr @realloc(ptr noundef nonnull %16, i64 noundef %18) #20
  br label %23

21:                                               ; preds = %14
  %22 = tail call noalias ptr @malloc(i64 noundef %18) #19
  br label %23

23:                                               ; preds = %21, %19
  %24 = phi ptr [ %20, %19 ], [ %22, %21 ]
  store ptr %24, ptr %15, align 8, !tbaa !17
  store i32 %12, ptr %1, align 8, !tbaa !18
  br label %Vec_IntGrow.exit.i

Vec_IntGrow.exit.i:                               ; preds = %23, %Wln_NtkFaninNum.exit
  %25 = icmp sgt i32 %12, 0
  br i1 %25, label %.lr.ph.i18, label %Vec_IntFill.exit

.lr.ph.i18:                                       ; preds = %Vec_IntGrow.exit.i
  %26 = getelementptr inbounds nuw i8, ptr %1, i64 8
  %27 = load ptr, ptr %26, align 8, !tbaa !17
  %28 = zext nneg i32 %12 to i64
  %29 = shl nuw nsw i64 %28, 2
  tail call void @llvm.memset.p0.i64(ptr align 4 %27, i8 0, i64 %29, i1 false), !tbaa !22
  br label %Vec_IntFill.exit

Vec_IntFill.exit:                                 ; preds = %Vec_IntGrow.exit.i, %.lr.ph.i18
  %30 = getelementptr inbounds nuw i8, ptr %1, i64 4
  store i32 %12, ptr %30, align 4, !tbaa !21
  %.val19 = load i32, ptr %4, align 4, !tbaa !21
  %31 = icmp sgt i32 %.val19, 1
  br i1 %31, label %.lr.ph, label %._crit_edge

.lr.ph:                                           ; preds = %Vec_IntFill.exit
  %32 = getelementptr i8, ptr %1, i64 8
  %.val17 = load ptr, ptr %32, align 8, !tbaa !17
  %33 = getelementptr i8, ptr %0, i64 88
  %.val16 = load ptr, ptr %33, align 8, !tbaa !25
  br label %34

34:                                               ; preds = %.lr.ph, %34
  %indvars.iv = phi i64 [ 1, %.lr.ph ], [ %indvars.iv.next, %34 ]
  %.021 = phi i32 [ %.val15, %.lr.ph ], [ %39, %34 ]
  %35 = getelementptr inbounds nuw i32, ptr %.val17, i64 %indvars.iv
  store i32 %.021, ptr %35, align 4, !tbaa !22
  %36 = getelementptr inbounds nuw %struct.Wln_Vec_t_, ptr %.val16, i64 %indvars.iv, i32 1
  %37 = load i32, ptr %36, align 4, !tbaa !43
  %38 = mul nsw i32 %37, %2
  %39 = add nsw i32 %38, %.021
  %indvars.iv.next = add nuw nsw i64 %indvars.iv, 1
  %.val = load i32, ptr %4, align 4, !tbaa !21
  %40 = sext i32 %.val to i64
  %41 = icmp slt i64 %indvars.iv.next, %40
  br i1 %41, label %34, label %._crit_edge, !llvm.loop !103

._crit_edge:                                      ; preds = %34, %Vec_IntFill.exit
  ret void
}